; Function Attrs: mustprogress uwtable
define void @_ZN6icu_756number29LocalizedNumberRangeFormatterC2ERKS1_(ptr noundef nonnull align 8 dereferenceable(1216) %this, ptr noundef nonnull align 8 dereferenceable(1216) %other) unnamed_addr #1 align 2 personality ptr @__gxx_personality_v0 {
entry:
  %formatter1.i.i.i = getelementptr inbounds i8, ptr %this, i64 8
  %formatter12.i.i.i = getelementptr inbounds i8, ptr %other, i64 8
  tail call void @_ZN6icu_756number26UnlocalizedNumberFormatterC1ERKS1_(ptr noundef nonnull align 8 dereferenceable(473) %formatter1.i.i.i, ptr noundef nonnull align 8 dereferenceable(473) %formatter12.i.i.i)
  %formatter2.i.i.i = getelementptr inbounds i8, ptr %this, i64 488
  %formatter23.i.i.i = getelementptr inbounds i8, ptr %other, i64 488
  invoke void @_ZN6icu_756number26UnlocalizedNumberFormatterC1ERKS1_(ptr noundef nonnull align 8 dereferenceable(473) %formatter2.i.i.i, ptr noundef nonnull align 8 dereferenceable(473) %formatter23.i.i.i)
          to label %invoke.cont.i.i.i unwind label %lpad.i.i.i

invoke.cont.i.i.i:                                ; preds = %entry
  %singleFormatter.i.i.i = getelementptr inbounds i8, ptr %this, i64 968
  %singleFormatter4.i.i.i = getelementptr inbounds i8, ptr %other, i64 968
  tail call void @llvm.memcpy.p0.p0.i64(ptr noundef nonnull align 8 dereferenceable(12) %singleFormatter.i.i.i, ptr noundef nonnull align 8 dereferenceable(12) %singleFormatter4.i.i.i, i64 12, i1 false)
  %locale.i.i.i = getelementptr inbounds i8, ptr %this, i64 984
  %locale5.i.i.i = getelementptr inbounds i8, ptr %other, i64 984
  invoke void @_ZN6icu_756LocaleC1ERKS0_(ptr noundef nonnull align 8 dereferenceable(217) %locale.i.i.i, ptr noundef nonnull align 8 dereferenceable(217) %locale5.i.i.i)
          to label %_ZN6icu_756number29LocalizedNumberRangeFormatterC2ERKNS0_28NumberRangeFormatterSettingsIS1_EE.exit unwind label %lpad6.i.i.i

lpad.i.i.i:                                       ; preds = %entry
  %0 = landingpad { ptr, i32 }
          cleanup
  br label %ehcleanup.i.i.i

lpad6.i.i.i:                                      ; preds = %invoke.cont.i.i.i
  %1 = landingpad { ptr, i32 }
          cleanup
  tail call void @_ZN6icu_756number26UnlocalizedNumberFormatterD2Ev(ptr noundef nonnull align 8 dereferenceable(473) %formatter2.i.i.i) #10
  br label %ehcleanup.i.i.i

ehcleanup.i.i.i:                                  ; preds = %lpad6.i.i.i, %lpad.i.i.i
  %.pn.i.i.i = phi { ptr, i32 } [ %1, %lpad6.i.i.i ], [ %0, %lpad.i.i.i ]
  tail call void @_ZN6icu_756number26UnlocalizedNumberFormatterD2Ev(ptr noundef nonnull align 8 dereferenceable(473) %formatter1.i.i.i) #10
  resume { ptr, i32 } %.pn.i.i.i

_ZN6icu_756number29LocalizedNumberRangeFormatterC2ERKNS0_28NumberRangeFormatterSettingsIS1_EE.exit: ; preds = %invoke.cont.i.i.i
  %fAtomicFormatter.i = getelementptr inbounds i8, ptr %this, i64 1208
  store i64 0, ptr %fAtomicFormatter.i, align 8
  ret void
}